target datalayout = "e-m:e-p270:32:32-p271:32:32-p272:64:64-i64:64-i128:128-f80:128-n8:16:32:64-S128"
target triple = "x86_64-pc-linux-gnu"

%struct.AVChannelLayout = type { i32, i32, %union.anon.1, ptr }
%union.anon.1 = type { i64 }
%struct.AVFilterFormatsConfig = type { ptr, ptr, ptr, ptr, ptr }

@query_formats.formats = internal constant [3 x i32] [i32 8, i32 9, i32 -1], align 4

; Function Attrs: nounwind uwtable
define internal i32 @query_formats(ptr noundef %0, ptr noundef %1, ptr noundef %2) #1 {
  %4 = alloca i32, align 4
  %5 = alloca ptr, align 8
  %6 = alloca ptr, align 8
  %7 = alloca ptr, align 8
  %8 = alloca ptr, align 8
  %9 = alloca ptr, align 8
  %10 = alloca i32, align 4
  %11 = alloca i32, align 4
  %12 = alloca %struct.AVChannelLayout, align 8
  %13 = alloca %struct.AVChannelLayout, align 8
  store ptr %0, ptr %5, align 8, !tbaa !4
  store ptr %1, ptr %6, align 8, !tbaa !24
  store ptr %2, ptr %7, align 8, !tbaa !24
  call void @llvm.lifetime.start.p0(i64 8, ptr %8) #10
  store ptr null, ptr %8, align 8, !tbaa !26
  call void @llvm.lifetime.start.p0(i64 8, ptr %9) #10
  store ptr null, ptr %9, align 8, !tbaa !26
  call void @llvm.lifetime.start.p0(i64 4, ptr %10) #10
  %14 = load ptr, ptr %5, align 8, !tbaa !4
  %15 = load ptr, ptr %6, align 8, !tbaa !24
  %16 = load ptr, ptr %7, align 8, !tbaa !24
  %17 = call i32 @ff_set_common_formats_from_list2(ptr noundef %14, ptr noundef %15, ptr noundef %16, ptr noundef @query_formats.formats)
  store i32 %17, ptr %10, align 4, !tbaa !28
  %18 = load i32, ptr %10, align 4, !tbaa !28
  %19 = icmp slt i32 %18, 0
  br i1 %19, label %20, label %22

20:                                               ; preds = %3
  %21 = load i32, ptr %10, align 4, !tbaa !28
  store i32 %21, ptr %4, align 4
  store i32 1, ptr %11, align 4
  br label %55

22:                                               ; preds = %3
  %23 = getelementptr inbounds nuw %struct.AVChannelLayout, ptr %12, i32 0, i32 0
  store i32 1, ptr %23, align 8, !tbaa !29
  %24 = getelementptr inbounds nuw %struct.AVChannelLayout, ptr %12, i32 0, i32 1
  store i32 2, ptr %24, align 4, !tbaa !31
  %25 = getelementptr inbounds nuw %struct.AVChannelLayout, ptr %12, i32 0, i32 2
  store i64 3, ptr %25, align 8, !tbaa !32
  %26 = getelementptr inbounds nuw %struct.AVChannelLayout, ptr %12, i32 0, i32 3
  store ptr null, ptr %26, align 8, !tbaa !33
  %27 = call i32 @ff_add_channel_layout(ptr noundef %8, ptr noundef %12)
  store i32 %27, ptr %10, align 4, !tbaa !28
  %28 = icmp slt i32 %27, 0
  br i1 %28, label %52, label %29

29:                                               ; preds = %22
  %30 = load ptr, ptr %8, align 8, !tbaa !26
  %31 = load ptr, ptr %6, align 8, !tbaa !24
  %32 = getelementptr inbounds ptr, ptr %31, i64 0
  %33 = load ptr, ptr %32, align 8, !tbaa !34
  %34 = getelementptr inbounds nuw %struct.AVFilterFormatsConfig, ptr %33, i32 0, i32 2
  %35 = call i32 @ff_channel_layouts_ref(ptr noundef %30, ptr noundef %34)
  store i32 %35, ptr %10, align 4, !tbaa !28
  %36 = icmp slt i32 %35, 0
  br i1 %36, label %52, label %37

37:                                               ; preds = %29
  %38 = getelementptr inbounds nuw %struct.AVChannelLayout, ptr %13, i32 0, i32 0
  store i32 1, ptr %38, align 8, !tbaa !29
  %39 = getelementptr inbounds nuw %struct.AVChannelLayout, ptr %13, i32 0, i32 1
  store i32 3, ptr %39, align 4, !tbaa !31
  %40 = getelementptr inbounds nuw %struct.AVChannelLayout, ptr %13, i32 0, i32 2
  store i64 7, ptr %40, align 8, !tbaa !32
  %41 = getelementptr inbounds nuw %struct.AVChannelLayout, ptr %13, i32 0, i32 3
  store ptr null, ptr %41, align 8, !tbaa !33
  %42 = call i32 @ff_add_channel_layout(ptr noundef %9, ptr noundef %13)
  store i32 %42, ptr %10, align 4, !tbaa !28
  %43 = icmp slt i32 %42, 0
  br i1 %43, label %52, label %44

44:                                               ; preds = %37
  %45 = load ptr, ptr %9, align 8, !tbaa !26
  %46 = load ptr, ptr %7, align 8, !tbaa !24
  %47 = getelementptr inbounds ptr, ptr %46, i64 0
  %48 = load ptr, ptr %47, align 8, !tbaa !34
  %49 = getelementptr inbounds nuw %struct.AVFilterFormatsConfig, ptr %48, i32 0, i32 2
  %50 = call i32 @ff_channel_layouts_ref(ptr noundef %45, ptr noundef %49)
  store i32 %50, ptr %10, align 4, !tbaa !28
  %51 = icmp slt i32 %50, 0
  br i1 %51, label %52, label %54

52:                                               ; preds = %44, %37, %29, %22
  %53 = load i32, ptr %10, align 4, !tbaa !28
  store i32 %53, ptr %4, align 4
  store i32 1, ptr %11, align 4
  br label %55

54:                                               ; preds = %44
  store i32 0, ptr %4, align 4
  store i32 1, ptr %11, align 4
  br label %55

55:                                               ; preds = %54, %52, %20
  call void @llvm.lifetime.end.p0(i64 4, ptr %10) #10
  call void @llvm.lifetime.end.p0(i64 8, ptr %9) #10
  call void @llvm.lifetime.end.p0(i64 8, ptr %8) #10
  %56 = load i32, ptr %4, align 4
  ret i32 %56
}