; Function Attrs: nounwind uwtable
define internal range(i32 -2147483648, 1) i32 @query_formats(ptr noundef %0, ptr noundef %1, ptr noundef %2) #1 {
  %4 = alloca ptr, align 8
  %5 = alloca ptr, align 8
  %6 = alloca %struct.AVChannelLayout, align 8
  %7 = alloca %struct.AVChannelLayout, align 8
  call void @llvm.lifetime.start.p0(i64 8, ptr nonnull %4) #9
  store ptr null, ptr %4, align 8, !tbaa !20
  call void @llvm.lifetime.start.p0(i64 8, ptr nonnull %5) #9
  store ptr null, ptr %5, align 8, !tbaa !20
  %8 = tail call i32 @ff_set_common_formats_from_list2(ptr noundef %0, ptr noundef %1, ptr noundef %2, ptr noundef nonnull @query_formats.formats) #9
  %9 = icmp slt i32 %8, 0
  br i1 %9, label %33, label %10

10:                                               ; preds = %3
  store i32 1, ptr %6, align 8, !tbaa !22
  %11 = getelementptr inbounds nuw i8, ptr %6, i64 4
  store i32 2, ptr %11, align 4, !tbaa !24
  %12 = getelementptr inbounds nuw i8, ptr %6, i64 8
  store i64 3, ptr %12, align 8, !tbaa !25
  %13 = getelementptr inbounds nuw i8, ptr %6, i64 16
  store ptr null, ptr %13, align 8, !tbaa !26
  %14 = call i32 @ff_add_channel_layout(ptr noundef nonnull %4, ptr noundef nonnull %6) #9
  %15 = icmp slt i32 %14, 0
  br i1 %15, label %33, label %16

16:                                               ; preds = %10
  %17 = load ptr, ptr %4, align 8, !tbaa !20
  %18 = load ptr, ptr %1, align 8, !tbaa !27
  %19 = getelementptr inbounds nuw i8, ptr %18, i64 16
  %20 = call i32 @ff_channel_layouts_ref(ptr noundef %17, ptr noundef nonnull %19) #9
  %21 = icmp slt i32 %20, 0
  br i1 %21, label %33, label %22

22:                                               ; preds = %16
  store i32 1, ptr %7, align 8, !tbaa !22
  %23 = getelementptr inbounds nuw i8, ptr %7, i64 4
  store i32 3, ptr %23, align 4, !tbaa !24
  %24 = getelementptr inbounds nuw i8, ptr %7, i64 8
  store i64 7, ptr %24, align 8, !tbaa !25
  %25 = getelementptr inbounds nuw i8, ptr %7, i64 16
  store ptr null, ptr %25, align 8, !tbaa !26
  %26 = call i32 @ff_add_channel_layout(ptr noundef nonnull %5, ptr noundef nonnull %7) #9
  %27 = icmp slt i32 %26, 0
  br i1 %27, label %33, label %28

28:                                               ; preds = %22
  %29 = load ptr, ptr %5, align 8, !tbaa !20
  %30 = load ptr, ptr %2, align 8, !tbaa !27
  %31 = getelementptr inbounds nuw i8, ptr %30, i64 16
  %32 = call i32 @ff_channel_layouts_ref(ptr noundef %29, ptr noundef nonnull %31) #9
  %spec.select = call i32 @llvm.smin.i32(i32 %32, i32 0)
  br label %33

33:                                               ; preds = %28, %10, %16, %22, %3
  %.08 = phi i32 [ %8, %3 ], [ %14, %10 ], [ %20, %16 ], [ %26, %22 ], [ %spec.select, %28 ]
  call void @llvm.lifetime.end.p0(i64 8, ptr nonnull %5) #9
  call void @llvm.lifetime.end.p0(i64 8, ptr nonnull %4) #9
  ret i32 %.08
}